; Function Attrs: nounwind uwtable
define hidden range(i32 -1, 1) i32 @_PyRun_AnyFileObject(ptr noundef %0, ptr noundef %1, i32 noundef %2, ptr noundef %3) local_unnamed_addr #0 {
  %.not23 = icmp eq ptr %1, null
  br i1 %.not23, label %5, label %11

5:                                                ; preds = %4
  %6 = tail call ptr @PyUnicode_FromString(ptr noundef nonnull @.str) #8
  %7 = icmp eq ptr %6, null
  br i1 %7, label %8, label %11

8:                                                ; preds = %5
  %9 = tail call align 8 ptr @llvm.threadlocal.address.p0(ptr align 8 @_Py_tss_tstate)
  %10 = load ptr, ptr %9, align 8, !tbaa !4
  tail call fastcc void @_PyErr_PrintEx(ptr noundef %10, i32 noundef 1)
  br label %Py_DECREF.exit

11:                                               ; preds = %5, %4
  %.018 = phi ptr [ %1, %4 ], [ %6, %5 ]
  %12 = tail call i32 @_Py_FdIsInteractive(ptr noundef %0, ptr noundef nonnull %.018) #8
  %.not = icmp eq i32 %12, 0
  br i1 %.not, label %17, label %13

13:                                               ; preds = %11
  %14 = tail call i32 @_PyRun_InteractiveLoopObject(ptr noundef %0, ptr noundef nonnull %.018, ptr noundef %3)
  %.not21 = icmp eq i32 %2, 0
  br i1 %.not21, label %19, label %15

15:                                               ; preds = %13
  %16 = tail call i32 @fclose(ptr noundef %0)
  br label %19

17:                                               ; preds = %11
  %18 = tail call i32 @_PyRun_SimpleFileObject(ptr noundef %0, ptr noundef nonnull %.018, i32 noundef %2, ptr noundef %3)
  br label %19

19:                                               ; preds = %13, %15, %17
  %.0 = phi i32 [ %14, %15 ], [ %14, %13 ], [ %18, %17 ]
  br i1 %.not23, label %20, label %Py_DECREF.exit

20:                                               ; preds = %19
  %21 = load i32, ptr %.018, align 8, !tbaa !9
  %.not.i = icmp sgt i32 %21, -1
  br i1 %.not.i, label %22, label %Py_DECREF.exit

22:                                               ; preds = %20
  %23 = add nsw i32 %21, -1
  store i32 %23, ptr %.018, align 8, !tbaa !9
  %24 = icmp eq i32 %23, 0
  br i1 %24, label %25, label %Py_DECREF.exit

25:                                               ; preds = %22
  tail call void @_Py_Dealloc(ptr noundef nonnull %.018) #8
  br label %Py_DECREF.exit

Py_DECREF.exit:                                   ; preds = %25, %22, %20, %19, %8
  %.017 = phi i32 [ -1, %8 ], [ %.0, %19 ], [ %.0, %20 ], [ %.0, %22 ], [ %.0, %25 ]
  ret i32 %.017
}